target datalayout = "e-m:e-p270:32:32-p271:32:32-p272:64:64-i64:64-i128:128-f80:128-n8:16:32:64-S128"
target triple = "x86_64-pc-linux-gnu"

%struct.CalloutNameListType = type { i32, i32, ptr }

; Function Attrs: nounwind uwtable
define internal i32 @make_callout_func_list(ptr noundef %0, i32 noundef %1) #0 {
  %3 = alloca i32, align 4
  %4 = alloca ptr, align 8
  %5 = alloca i32, align 4
  %6 = alloca ptr, align 8
  %7 = alloca ptr, align 8
  %8 = alloca i32, align 4
  store ptr %0, ptr %4, align 8, !tbaa !9
  store i32 %1, ptr %5, align 4, !tbaa !10
  call void @llvm.lifetime.start.p0(i64 8, ptr %6) #8
  call void @llvm.lifetime.start.p0(i64 8, ptr %7) #8
  %9 = load ptr, ptr %4, align 8, !tbaa !9
  store ptr null, ptr %9, align 8, !tbaa !9
  %10 = call noalias ptr @malloc(i64 noundef 16) #9
  store ptr %10, ptr %6, align 8, !tbaa !9
  %11 = load ptr, ptr %6, align 8, !tbaa !9
  %12 = icmp eq ptr %11, null
  br i1 %12, label %13, label %14

13:                                               ; preds = %2
  store i32 -5, ptr %3, align 4
  store i32 1, ptr %8, align 4
  br label %34

14:                                               ; preds = %2
  %15 = load i32, ptr %5, align 4, !tbaa !10
  %16 = sext i32 %15 to i64
  %17 = mul i64 120, %16
  %18 = call noalias ptr @malloc(i64 noundef %17) #9
  store ptr %18, ptr %7, align 8, !tbaa !9
  %19 = load ptr, ptr %7, align 8, !tbaa !9
  %20 = icmp eq ptr %19, null
  br i1 %20, label %21, label %23

21:                                               ; preds = %14
  %22 = load ptr, ptr %6, align 8, !tbaa !9
  call void @free(ptr noundef %22) #8
  store i32 -5, ptr %3, align 4
  store i32 1, ptr %8, align 4
  br label %34

23:                                               ; preds = %14
  %24 = load ptr, ptr %6, align 8, !tbaa !9
  %25 = getelementptr inbounds nuw %struct.CalloutNameListType, ptr %24, i32 0, i32 0
  store i32 0, ptr %25, align 8, !tbaa !75
  %26 = load i32, ptr %5, align 4, !tbaa !10
  %27 = load ptr, ptr %6, align 8, !tbaa !9
  %28 = getelementptr inbounds nuw %struct.CalloutNameListType, ptr %27, i32 0, i32 1
  store i32 %26, ptr %28, align 4, !tbaa !98
  %29 = load ptr, ptr %7, align 8, !tbaa !9
  %30 = load ptr, ptr %6, align 8, !tbaa !9
  %31 = getelementptr inbounds nuw %struct.CalloutNameListType, ptr %30, i32 0, i32 2
  store ptr %29, ptr %31, align 8, !tbaa !78
  %32 = load ptr, ptr %6, align 8, !tbaa !9
  %33 = load ptr, ptr %4, align 8, !tbaa !9
  store ptr %32, ptr %33, align 8, !tbaa !9
  store i32 0, ptr %3, align 4
  store i32 1, ptr %8, align 4
  br label %34

34:                                               ; preds = %23, %21, %13
  call void @llvm.lifetime.end.p0(i64 8, ptr %7) #8
  call void @llvm.lifetime.end.p0(i64 8, ptr %6) #8
  %35 = load i32, ptr %3, align 4
  ret i32 %35
}