; Function Attrs: mustprogress nounwind willreturn memory(readwrite, argmem: none) uwtable
define internal fastcc range(i32 -5, 1) i32 @make_callout_func_list() unnamed_addr #14 {
  store ptr null, ptr @GlobalCalloutNameList, align 8, !tbaa !4
  %1 = tail call noalias dereferenceable_or_null(16) ptr @malloc(i64 noundef 16) #25
  %2 = icmp eq ptr %1, null
  br i1 %2, label %10, label %3

3:                                                ; preds = %0
  %4 = tail call noalias dereferenceable_or_null(1200) ptr @malloc(i64 noundef 1200) #25
  %5 = icmp eq ptr %4, null
  br i1 %5, label %6, label %7

6:                                                ; preds = %3
  tail call void @free(ptr noundef nonnull %1) #24
  br label %10

7:                                                ; preds = %3
  store i32 0, ptr %1, align 8, !tbaa !62
  %8 = getelementptr inbounds nuw i8, ptr %1, i64 4
  store i32 10, ptr %8, align 4, !tbaa !64
  %9 = getelementptr inbounds nuw i8, ptr %1, i64 8
  store ptr %4, ptr %9, align 8, !tbaa !65
  store ptr %1, ptr @GlobalCalloutNameList, align 8, !tbaa !4
  br label %10

10:                                               ; preds = %0, %7, %6
  %.0 = phi i32 [ -5, %6 ], [ 0, %7 ], [ -5, %0 ]
  ret i32 %.0
}